target datalayout = "e-m:e-p270:32:32-p271:32:32-p272:64:64-i64:64-i128:128-f80:128-n8:16:32:64-S128"
target triple = "x86_64-pc-linux-gnu"

%struct.radix_process_st = type { i64, i64, i64, ptr, ptr, ptr, %struct.OSSL_TIME, ptr, i32, i32 }
%struct.OSSL_TIME = type { i64 }
%struct.terp_config_st = type { ptr, ptr, ptr, ptr, ptr, %struct.OSSL_TIME }
%struct.terp_st = type { %struct.terp_config_st, ptr, ptr, %struct.srdr_st, ptr, ptr, ptr, ptr, %struct.func_ctx_st, i64, i32, %struct.OSSL_TIME, %struct.OSSL_TIME }
%struct.srdr_st = type { ptr, ptr, ptr, ptr }
%struct.func_ctx_st = type { ptr, i32, i32 }
%struct.radix_thread_st = type { ptr, ptr, ptr, i64, i64, [8 x ptr], [8 x ptr], ptr, ptr, ptr, i32, i32, i64 }
%struct.radix_obj_st = type { ptr, ptr, i8 }

@.str.42 = private unnamed_addr constant [29 x i8] c"../openssl/test/radix/terp.c\00", align 1
@.str.44 = private unnamed_addr constant [33 x i8] c"../openssl/test/radix/quic_ops.c\00", align 1
@.str.46 = private unnamed_addr constant [60 x i8] c"TERP_stk_pop(((fctx->terp)), &(((name))), sizeof(((name))))\00", align 1
@radix_process = internal global %struct.radix_process_st zeroinitializer, align 8
@.str.55 = private unnamed_addr constant [30 x i8] c"terp->stk_end - terp->stk_cur\00", align 1
@.str.56 = private unnamed_addr constant [8 x i8] c"buf_len\00", align 1
@.str.83 = private unnamed_addr constant [60 x i8] c"TERP_stk_pop(((fctx->terp)), &(((slot))), sizeof(((slot))))\00", align 1
@.str.84 = private unnamed_addr constant [40 x i8] c"obj = RADIX_PROCESS_get_obj(RP(), name)\00", align 1
@.str.85 = private unnamed_addr constant [5 x i8] c"slot\00", align 1
@.str.86 = private unnamed_addr constant [10 x i8] c"NUM_SLOTS\00", align 1
@radix_thread = internal global i32 0, align 4

; Function Attrs: inlinehint nounwind uwtable
define internal ptr @lh_RADIX_OBJ_retrieve(ptr noundef %0, ptr noundef %1) #5 {
  %3 = alloca ptr, align 8
  %4 = alloca ptr, align 8
  store ptr %0, ptr %3, align 8, !tbaa !89
  store ptr %1, ptr %4, align 8, !tbaa !51
  %5 = load ptr, ptr %3, align 8, !tbaa !89
  %6 = load ptr, ptr %4, align 8, !tbaa !51
  %7 = call ptr @OPENSSL_LH_retrieve(ptr noundef %5, ptr noundef %6)
  ret ptr %7
}

; Function Attrs: nounwind uwtable
define internal ptr @radix_get_thread() #0 {
  %1 = call ptr @CRYPTO_THREAD_get_local(ptr noundef @radix_thread)
  ret ptr %1
}

; Function Attrs: nounwind uwtable
define internal ptr @RADIX_PROCESS_get_obj(ptr noundef %0, ptr noundef %1) #0 {
  %3 = alloca ptr, align 8
  %4 = alloca ptr, align 8
  %5 = alloca %struct.radix_obj_st, align 8
  store ptr %0, ptr %3, align 8, !tbaa !83
  store ptr %1, ptr %4, align 8, !tbaa !4
  call void @llvm.lifetime.start.p0(i64 24, ptr %5) #9
  %6 = load ptr, ptr %4, align 8, !tbaa !4
  %7 = getelementptr inbounds nuw %struct.radix_obj_st, ptr %5, i32 0, i32 0
  store ptr %6, ptr %7, align 8, !tbaa !88
  %8 = load ptr, ptr %3, align 8, !tbaa !83
  %9 = getelementptr inbounds nuw %struct.radix_process_st, ptr %8, i32 0, i32 5
  %10 = load ptr, ptr %9, align 8, !tbaa !68
  %11 = call ptr @lh_RADIX_OBJ_retrieve(ptr noundef %10, ptr noundef %5)
  call void @llvm.lifetime.end.p0(i64 24, ptr %5) #9
  ret ptr %11
}

; Function Attrs: inlinehint nounwind uwtable
define internal i32 @TERP_stk_pop(ptr noundef %0, ptr noundef %1, i64 noundef %2) #5 {
  %4 = alloca i32, align 4
  %5 = alloca ptr, align 8
  %6 = alloca ptr, align 8
  %7 = alloca i64, align 8
  store ptr %0, ptr %5, align 8, !tbaa !75
  store ptr %1, ptr %6, align 8, !tbaa !41
  store i64 %2, ptr %7, align 8, !tbaa !19
  %8 = load ptr, ptr %5, align 8, !tbaa !75
  %9 = getelementptr inbounds nuw %struct.terp_st, ptr %8, i32 0, i32 6
  %10 = load ptr, ptr %9, align 8, !tbaa !26
  %11 = load ptr, ptr %5, align 8, !tbaa !75
  %12 = getelementptr inbounds nuw %struct.terp_st, ptr %11, i32 0, i32 5
  %13 = load ptr, ptr %12, align 8, !tbaa !32
  %14 = ptrtoint ptr %10 to i64
  %15 = ptrtoint ptr %13 to i64
  %16 = sub i64 %14, %15
  %17 = load i64, ptr %7, align 8, !tbaa !19
  %18 = call i32 @test_size_t_ge(ptr noundef @.str.42, i32 noundef 629, ptr noundef @.str.55, ptr noundef @.str.56, i64 noundef %16, i64 noundef %17)
  %19 = icmp ne i32 %18, 0
  br i1 %19, label %21, label %20

20:                                               ; preds = %3
  store i32 0, ptr %4, align 4
  br label %32

21:                                               ; preds = %3
  %22 = load ptr, ptr %6, align 8, !tbaa !41
  %23 = load ptr, ptr %5, align 8, !tbaa !75
  %24 = getelementptr inbounds nuw %struct.terp_st, ptr %23, i32 0, i32 5
  %25 = load ptr, ptr %24, align 8, !tbaa !32
  %26 = load i64, ptr %7, align 8, !tbaa !19
  call void @llvm.memcpy.p0.p0.i64(ptr align 1 %22, ptr align 1 %25, i64 %26, i1 false)
  %27 = load i64, ptr %7, align 8, !tbaa !19
  %28 = load ptr, ptr %5, align 8, !tbaa !75
  %29 = getelementptr inbounds nuw %struct.terp_st, ptr %28, i32 0, i32 5
  %30 = load ptr, ptr %29, align 8, !tbaa !32
  %31 = getelementptr inbounds nuw i8, ptr %30, i64 %27
  store ptr %31, ptr %29, align 8, !tbaa !32
  store i32 1, ptr %4, align 4
  br label %32

32:                                               ; preds = %21, %20
  %33 = load i32, ptr %4, align 4
  ret i32 %33
}

; Function Attrs: nounwind uwtable
define internal i32 @hf_select_ssl(ptr noundef %0) #0 {
  %2 = alloca ptr, align 8
  %3 = alloca i32, align 4
  %4 = alloca i64, align 8
  %5 = alloca ptr, align 8
  %6 = alloca ptr, align 8
  store ptr %0, ptr %2, align 8, !tbaa !42
  call void @llvm.lifetime.start.p0(i64 4, ptr %3) #9
  store i32 0, ptr %3, align 4, !tbaa !9
  call void @llvm.lifetime.start.p0(i64 8, ptr %4) #9
  call void @llvm.lifetime.start.p0(i64 8, ptr %5) #9
  call void @llvm.lifetime.start.p0(i64 8, ptr %6) #9
  br label %7

7:                                                ; preds = %1
  br label %8

8:                                                ; preds = %7
  call void @llvm.memset.p0.i64(ptr align 8 %5, i8 0, i64 8, i1 false)
  %9 = load ptr, ptr %2, align 8, !tbaa !42
  %10 = getelementptr inbounds nuw %struct.func_ctx_st, ptr %9, i32 0, i32 0
  %11 = load ptr, ptr %10, align 8, !tbaa !46
  %12 = call i32 @TERP_stk_pop(ptr noundef %11, ptr noundef %5, i64 noundef 8)
  %13 = icmp ne i32 %12, 0
  %14 = zext i1 %13 to i32
  %15 = call i32 @test_true(ptr noundef @.str.44, i32 noundef 892, ptr noundef @.str.46, i32 noundef %14)
  %16 = icmp ne i32 %15, 0
  br i1 %16, label %18, label %17

17:                                               ; preds = %8
  br label %59

18:                                               ; preds = %8
  br label %19

19:                                               ; preds = %18
  br label %20

20:                                               ; preds = %19
  br label %21

21:                                               ; preds = %20
  call void @llvm.memset.p0.i64(ptr align 8 %4, i8 0, i64 8, i1 false)
  %22 = load ptr, ptr %2, align 8, !tbaa !42
  %23 = getelementptr inbounds nuw %struct.func_ctx_st, ptr %22, i32 0, i32 0
  %24 = load ptr, ptr %23, align 8, !tbaa !46
  %25 = call i32 @TERP_stk_pop(ptr noundef %24, ptr noundef %4, i64 noundef 8)
  %26 = icmp ne i32 %25, 0
  %27 = zext i1 %26 to i32
  %28 = call i32 @test_true(ptr noundef @.str.44, i32 noundef 892, ptr noundef @.str.83, i32 noundef %27)
  %29 = icmp ne i32 %28, 0
  br i1 %29, label %31, label %30

30:                                               ; preds = %21
  br label %59

31:                                               ; preds = %21
  br label %32

32:                                               ; preds = %31
  br label %33

33:                                               ; preds = %32
  br label %34

34:                                               ; preds = %33
  br label %35

35:                                               ; preds = %34
  %36 = load ptr, ptr %5, align 8, !tbaa !4
  %37 = call ptr @RADIX_PROCESS_get_obj(ptr noundef @radix_process, ptr noundef %36)
  store ptr %37, ptr %6, align 8, !tbaa !51
  %38 = call i32 @test_ptr(ptr noundef @.str.44, i32 noundef 893, ptr noundef @.str.84, ptr noundef %37)
  %39 = icmp ne i32 %38, 0
  br i1 %39, label %41, label %40

40:                                               ; preds = %35
  br label %59

41:                                               ; preds = %35
  %42 = load i64, ptr %4, align 8, !tbaa !19
  %43 = call i32 @test_uint64_t_lt(ptr noundef @.str.44, i32 noundef 896, ptr noundef @.str.85, ptr noundef @.str.86, i64 noundef %42, i64 noundef 8)
  %44 = icmp ne i32 %43, 0
  br i1 %44, label %46, label %45

45:                                               ; preds = %41
  br label %59

46:                                               ; preds = %41
  %47 = load ptr, ptr %6, align 8, !tbaa !51
  %48 = call ptr @radix_get_thread()
  %49 = getelementptr inbounds nuw %struct.radix_thread_st, ptr %48, i32 0, i32 5
  %50 = load i64, ptr %4, align 8, !tbaa !19
  %51 = getelementptr inbounds nuw [8 x ptr], ptr %49, i64 0, i64 %50
  store ptr %47, ptr %51, align 8, !tbaa !51
  %52 = load ptr, ptr %6, align 8, !tbaa !51
  %53 = getelementptr inbounds nuw %struct.radix_obj_st, ptr %52, i32 0, i32 1
  %54 = load ptr, ptr %53, align 8, !tbaa !53
  %55 = call ptr @radix_get_thread()
  %56 = getelementptr inbounds nuw %struct.radix_thread_st, ptr %55, i32 0, i32 6
  %57 = load i64, ptr %4, align 8, !tbaa !19
  %58 = getelementptr inbounds nuw [8 x ptr], ptr %56, i64 0, i64 %57
  store ptr %54, ptr %58, align 8, !tbaa !49
  store i32 1, ptr %3, align 4, !tbaa !9
  br label %59

59:                                               ; preds = %46, %45, %40, %30, %17
  %60 = load i32, ptr %3, align 4, !tbaa !9
  call void @llvm.lifetime.end.p0(i64 8, ptr %6) #9
  call void @llvm.lifetime.end.p0(i64 8, ptr %5) #9
  call void @llvm.lifetime.end.p0(i64 8, ptr %4) #9
  call void @llvm.lifetime.end.p0(i64 4, ptr %3) #9
  ret i32 %60
}