; Function Attrs: nounwind uwtable
define internal range(i32 0, 2) i32 @hf_select_ssl(ptr noundef readonly captures(none) %0) #1 {
  %2 = alloca %struct.radix_obj_st, align 8
  %3 = load ptr, ptr %0, align 8, !tbaa !107
  %4 = getelementptr inbounds nuw i8, ptr %3, i64 112
  %5 = load ptr, ptr %4, align 8, !tbaa !100
  %6 = getelementptr inbounds nuw i8, ptr %3, i64 104
  %7 = load ptr, ptr %6, align 8, !tbaa !95
  %8 = ptrtoint ptr %5 to i64
  %9 = ptrtoint ptr %7 to i64
  %10 = sub i64 %8, %9
  %11 = tail call i32 @test_size_t_ge(ptr noundef nonnull @.str.42, i32 noundef 629, ptr noundef nonnull @.str.55, ptr noundef nonnull @.str.56, i64 noundef %10, i64 noundef 8) #12
  %.not.i = icmp eq i32 %11, 0
  br i1 %.not.i, label %TERP_stk_pop.exit, label %12

12:                                               ; preds = %1
  %13 = load ptr, ptr %6, align 8, !tbaa !95
  %14 = load i64, ptr %13, align 1
  %15 = inttoptr i64 %14 to ptr
  %16 = getelementptr inbounds nuw i8, ptr %13, i64 8
  store ptr %16, ptr %6, align 8, !tbaa !95
  br label %TERP_stk_pop.exit

TERP_stk_pop.exit:                                ; preds = %1, %12
  %.012 = phi ptr [ null, %1 ], [ %15, %12 ]
  %.0.i = phi i32 [ 0, %1 ], [ 1, %12 ]
  %17 = tail call i32 @test_true(ptr noundef nonnull @.str.44, i32 noundef 892, ptr noundef nonnull @.str.46, i32 noundef %.0.i) #12
  %.not = icmp eq i32 %17, 0
  br i1 %.not, label %48, label %18

18:                                               ; preds = %TERP_stk_pop.exit
  %19 = load ptr, ptr %0, align 8, !tbaa !107
  %20 = getelementptr inbounds nuw i8, ptr %19, i64 112
  %21 = load ptr, ptr %20, align 8, !tbaa !100
  %22 = getelementptr inbounds nuw i8, ptr %19, i64 104
  %23 = load ptr, ptr %22, align 8, !tbaa !95
  %24 = ptrtoint ptr %21 to i64
  %25 = ptrtoint ptr %23 to i64
  %26 = sub i64 %24, %25
  %27 = tail call i32 @test_size_t_ge(ptr noundef nonnull @.str.42, i32 noundef 629, ptr noundef nonnull @.str.55, ptr noundef nonnull @.str.56, i64 noundef %26, i64 noundef 8) #12
  %.not.i7 = icmp eq i32 %27, 0
  br i1 %.not.i7, label %TERP_stk_pop.exit9, label %28

28:                                               ; preds = %18
  %29 = load ptr, ptr %22, align 8, !tbaa !95
  %30 = load i64, ptr %29, align 1
  %31 = getelementptr inbounds nuw i8, ptr %29, i64 8
  store ptr %31, ptr %22, align 8, !tbaa !95
  br label %TERP_stk_pop.exit9

TERP_stk_pop.exit9:                               ; preds = %18, %28
  %.013 = phi i64 [ 0, %18 ], [ %30, %28 ]
  %.0.i8 = phi i32 [ 0, %18 ], [ 1, %28 ]
  %32 = tail call i32 @test_true(ptr noundef nonnull @.str.44, i32 noundef 892, ptr noundef nonnull @.str.83, i32 noundef %.0.i8) #12
  %.not4 = icmp eq i32 %32, 0
  br i1 %.not4, label %48, label %33

33:                                               ; preds = %TERP_stk_pop.exit9
  call void @llvm.lifetime.start.p0(i64 24, ptr nonnull %2) #12
  store ptr %.012, ptr %2, align 8, !tbaa !46
  %34 = load ptr, ptr getelementptr inbounds nuw (i8, ptr @radix_process, i64 40), align 8, !tbaa !18
  %35 = call ptr @OPENSSL_LH_retrieve(ptr noundef %34, ptr noundef nonnull %2) #12
  call void @llvm.lifetime.end.p0(i64 24, ptr nonnull %2) #12
  %36 = call i32 @test_ptr(ptr noundef nonnull @.str.44, i32 noundef 893, ptr noundef nonnull @.str.84, ptr noundef %35) #12
  %.not5 = icmp eq i32 %36, 0
  br i1 %.not5, label %48, label %37

37:                                               ; preds = %33
  %38 = call i32 @test_uint64_t_lt(ptr noundef nonnull @.str.44, i32 noundef 896, ptr noundef nonnull @.str.85, ptr noundef nonnull @.str.86, i64 noundef %.013, i64 noundef 8) #12
  %.not6 = icmp eq i32 %38, 0
  br i1 %.not6, label %48, label %39

39:                                               ; preds = %37
  %40 = call ptr @CRYPTO_THREAD_get_local(ptr noundef nonnull @radix_thread) #12
  %41 = getelementptr inbounds nuw i8, ptr %40, i64 40
  %42 = getelementptr inbounds nuw [8 x ptr], ptr %41, i64 0, i64 %.013
  store ptr %35, ptr %42, align 8, !tbaa !44
  %43 = getelementptr inbounds nuw i8, ptr %35, i64 8
  %44 = load ptr, ptr %43, align 8, !tbaa !108
  %45 = call ptr @CRYPTO_THREAD_get_local(ptr noundef nonnull @radix_thread) #12
  %46 = getelementptr inbounds nuw i8, ptr %45, i64 104
  %47 = getelementptr inbounds nuw [8 x ptr], ptr %46, i64 0, i64 %.013
  store ptr %44, ptr %47, align 8, !tbaa !49
  br label %48

48:                                               ; preds = %37, %33, %TERP_stk_pop.exit9, %TERP_stk_pop.exit, %39
  %.0 = phi i32 [ 1, %39 ], [ 0, %37 ], [ 0, %33 ], [ 0, %TERP_stk_pop.exit9 ], [ 0, %TERP_stk_pop.exit ]
  ret i32 %.0
}